; Function Attrs: mustprogress nounwind uwtable
define hidden void @_ZN8GraphKit14set_all_memoryEP4Node(ptr nocapture noundef nonnull readonly align 8 dereferenceable(84) %0, ptr noundef %1) local_unnamed_addr #0 align 2 {
  %3 = tail call noundef ptr @_ZN12MergeMemNode4makeEP4Node(ptr noundef %1) #13
  %4 = getelementptr inbounds i8, ptr %0, i64 32
  %5 = load ptr, ptr %4, align 8
  %6 = getelementptr inbounds i8, ptr %5, i64 40
  %7 = load ptr, ptr %6, align 8
  %8 = getelementptr inbounds i8, ptr %3, i64 40
  %9 = load i32, ptr %8, align 8
  %10 = load ptr, ptr %3, align 8
  %11 = getelementptr inbounds i8, ptr %10, i64 40
  %12 = load ptr, ptr %11, align 8
  %13 = tail call noundef ptr %12(ptr noundef nonnull align 8 dereferenceable(52) %3) #13
  %14 = getelementptr inbounds i8, ptr %7, i64 8
  %15 = load i32, ptr %14, align 8
  %.not.i.i = icmp ugt i32 %15, %9
  br i1 %.not.i.i, label %_ZN11PhaseValues15set_type_bottomEPK4Node.exit, label %16

16:                                               ; preds = %2
  tail call void @_ZN10Type_Array4growEj(ptr noundef nonnull align 8 dereferenceable(24) %7, i32 noundef %9) #13
  br label %_ZN11PhaseValues15set_type_bottomEPK4Node.exit

_ZN11PhaseValues15set_type_bottomEPK4Node.exit:   ; preds = %2, %16
  %17 = getelementptr inbounds i8, ptr %7, i64 16
  %18 = load ptr, ptr %17, align 8
  %19 = zext i32 %9 to i64
  %20 = getelementptr inbounds ptr, ptr %18, i64 %19
  store ptr %13, ptr %20, align 8
  %21 = getelementptr inbounds i8, ptr %0, i64 40
  %22 = load ptr, ptr %21, align 8
  %23 = getelementptr inbounds i8, ptr %22, i64 8
  %24 = load ptr, ptr %23, align 8
  %25 = getelementptr inbounds i8, ptr %24, i64 16
  %26 = load ptr, ptr %25, align 8
  %.not.i.i4 = icmp eq ptr %26, null
  br i1 %.not.i.i4, label %44, label %27

27:                                               ; preds = %_ZN11PhaseValues15set_type_bottomEPK4Node.exit
  %28 = getelementptr inbounds i8, ptr %26, i64 16
  %29 = load ptr, ptr %28, align 8
  %30 = icmp eq ptr %29, null
  br i1 %30, label %44, label %31

31:                                               ; preds = %27
  %32 = getelementptr inbounds i8, ptr %26, i64 32
  %33 = load i32, ptr %32, align 8
  %34 = zext i32 %33 to i64
  %35 = getelementptr inbounds ptr, ptr %29, i64 %34
  br label %36

36:                                               ; preds = %36, %31
  %.0.i.i.i = phi ptr [ %35, %31 ], [ %37, %36 ]
  %37 = getelementptr inbounds i8, ptr %.0.i.i.i, i64 -8
  %38 = load ptr, ptr %37, align 8
  %.not.i.i.i = icmp eq ptr %38, %22
  br i1 %.not.i.i.i, label %39, label %36, !llvm.loop !6

39:                                               ; preds = %36
  %40 = add i32 %33, -1
  store i32 %40, ptr %32, align 8
  %41 = zext i32 %40 to i64
  %42 = getelementptr inbounds ptr, ptr %29, i64 %41
  %43 = load ptr, ptr %42, align 8
  store ptr %43, ptr %37, align 8
  br label %44

44:                                               ; preds = %_ZN11PhaseValues15set_type_bottomEPK4Node.exit, %27, %39
  store ptr %3, ptr %25, align 8
  %45 = getelementptr inbounds i8, ptr %3, i64 16
  %46 = load ptr, ptr %45, align 8
  %47 = icmp eq ptr %46, null
  br i1 %47, label %_ZN13SafePointNode10set_memoryEP4Node.exit, label %48

48:                                               ; preds = %44
  %49 = getelementptr inbounds i8, ptr %3, i64 32
  %50 = load i32, ptr %49, align 8
  %51 = getelementptr inbounds i8, ptr %3, i64 36
  %52 = load i32, ptr %51, align 4
  %53 = icmp eq i32 %50, %52
  br i1 %53, label %54, label %55

54:                                               ; preds = %48
  tail call void @_ZN4Node8out_growEj(ptr noundef nonnull align 8 dereferenceable(52) %3, i32 noundef %50) #13
  %.pre.i.i.i = load ptr, ptr %45, align 8
  %.pre2.i.i.i = load i32, ptr %49, align 8
  br label %55

55:                                               ; preds = %54, %48
  %56 = phi i32 [ %.pre2.i.i.i, %54 ], [ %50, %48 ]
  %57 = phi ptr [ %.pre.i.i.i, %54 ], [ %46, %48 ]
  %58 = add i32 %56, 1
  store i32 %58, ptr %49, align 8
  %59 = zext i32 %56 to i64
  %60 = getelementptr inbounds ptr, ptr %57, i64 %59
  store ptr %22, ptr %60, align 8
  br label %_ZN13SafePointNode10set_memoryEP4Node.exit

_ZN13SafePointNode10set_memoryEP4Node.exit:       ; preds = %44, %55
  ret void
}